target datalayout = "e-m:e-p270:32:32-p271:32:32-p272:64:64-i64:64-i128:128-f80:128-n8:16:32:64-S128"
target triple = "x86_64-pc-linux-gnu"

%struct.H5T_t = type { %struct.H5O_shared_t, ptr, %struct.H5O_loc_t, %struct.H5G_name_t, ptr }
%struct.H5O_shared_t = type { i32, ptr, i32, %union.anon }
%union.anon = type { %struct.H5O_mesg_loc_t }
%struct.H5O_mesg_loc_t = type { i32, i64 }
%struct.H5O_loc_t = type { ptr, i64, i8 }
%struct.H5G_name_t = type { ptr, ptr, i32 }
%struct.H5T_shared_t = type { i64, i32, i32, i64, i32, i8, ptr, ptr, %union.anon.0 }
%union.anon.0 = type { %struct.H5T_array_t }
%struct.H5T_array_t = type { i64, i32, [32 x i64] }
%struct.H5T_compnd_t = type { i32, i32, i32, i8, ptr, i64 }
%struct.H5T_enum_t = type { i32, i32, i32, ptr, ptr }

; Function Attrs: nounwind uwtable
define i32 @H5T_is_sensible(ptr noundef %0) #0 {
  %2 = alloca ptr, align 8
  %3 = alloca i32, align 4
  store ptr %0, ptr %2, align 8
  store i32 -1, ptr %3, align 4
  %4 = load ptr, ptr %2, align 8
  %5 = getelementptr inbounds %struct.H5T_t, ptr %4, i32 0, i32 1
  %6 = load ptr, ptr %5, align 8
  %7 = getelementptr inbounds %struct.H5T_shared_t, ptr %6, i32 0, i32 2
  %8 = load i32, ptr %7, align 4
  switch i32 %8, label %32 [
    i32 6, label %9
    i32 8, label %20
    i32 -1, label %31
    i32 0, label %31
    i32 1, label %31
    i32 2, label %31
    i32 3, label %31
    i32 4, label %31
    i32 5, label %31
    i32 7, label %31
    i32 9, label %31
    i32 10, label %31
    i32 11, label %31
  ]

9:                                                ; preds = %1
  %10 = load ptr, ptr %2, align 8
  %11 = getelementptr inbounds %struct.H5T_t, ptr %10, i32 0, i32 1
  %12 = load ptr, ptr %11, align 8
  %13 = getelementptr inbounds %struct.H5T_shared_t, ptr %12, i32 0, i32 8
  %14 = getelementptr inbounds %struct.H5T_compnd_t, ptr %13, i32 0, i32 1
  %15 = load i32, ptr %14, align 4
  %16 = icmp ugt i32 %15, 0
  br i1 %16, label %17, label %18

17:                                               ; preds = %9
  store i32 1, ptr %3, align 4
  br label %19

18:                                               ; preds = %9
  store i32 0, ptr %3, align 4
  br label %19

19:                                               ; preds = %18, %17
  br label %33

20:                                               ; preds = %1
  %21 = load ptr, ptr %2, align 8
  %22 = getelementptr inbounds %struct.H5T_t, ptr %21, i32 0, i32 1
  %23 = load ptr, ptr %22, align 8
  %24 = getelementptr inbounds %struct.H5T_shared_t, ptr %23, i32 0, i32 8
  %25 = getelementptr inbounds %struct.H5T_enum_t, ptr %24, i32 0, i32 1
  %26 = load i32, ptr %25, align 4
  %27 = icmp ugt i32 %26, 0
  br i1 %27, label %28, label %29

28:                                               ; preds = %20
  store i32 1, ptr %3, align 4
  br label %30

29:                                               ; preds = %20
  store i32 0, ptr %3, align 4
  br label %30

30:                                               ; preds = %29, %28
  br label %33

31:                                               ; preds = %1, %1, %1, %1, %1, %1, %1, %1, %1, %1, %1
  br label %32

32:                                               ; preds = %31, %1
  store i32 1, ptr %3, align 4
  br label %33

33:                                               ; preds = %32, %30, %19
  %34 = load i32, ptr %3, align 4
  ret i32 %34
}