; Function Attrs: mustprogress nofree norecurse nosync nounwind willreturn memory(read, inaccessiblemem: none) uwtable
define range(i32 0, 2) i32 @H5T_is_sensible(ptr nocapture noundef readonly %0) local_unnamed_addr #5 {
  %2 = getelementptr inbounds i8, ptr %0, i64 40
  %3 = load ptr, ptr %2, align 8
  %4 = getelementptr inbounds i8, ptr %3, i64 12
  %5 = load i32, ptr %4, align 4
  switch i32 %5, label %9 [
    i32 6, label %.sink.split
    i32 8, label %.sink.split
  ]

.sink.split:                                      ; preds = %1, %1
  %6 = getelementptr inbounds i8, ptr %3, i64 52
  %7 = load i32, ptr %6, align 4
  %.not = icmp ne i32 %7, 0
  %8 = zext i1 %.not to i32
  br label %9

9:                                                ; preds = %.sink.split, %1
  %.0.shrunk = phi i32 [ 1, %1 ], [ %8, %.sink.split ]
  ret i32 %.0.shrunk
}